target datalayout = "e-m:e-p270:32:32-p271:32:32-p272:64:64-i64:64-i128:128-f80:128-n8:16:32:64-S128"
target triple = "x86_64-pc-linux-gnu"

%struct.AVFormatContext = type { ptr, ptr, ptr, ptr, ptr, i32, i32, ptr, i32, ptr, i32, ptr, ptr, i64, i64, i64, i32, i32, i32, i64, i64, ptr, i32, i32, ptr, i32, i32, i32, i32, ptr, i64, i32, i32, %struct.AVIOInterruptCB, i32, i32, i32, i32, i64, i32, i32, i32, i32, i32, i32, i32, i32, i32, i32, i32, i32, i64, i32, i32, i32, i32, i32, ptr, ptr, ptr, ptr, i32, ptr, ptr, ptr, ptr, i32, ptr, ptr, i64, ptr, ptr, ptr, i64 }
%struct.AVIOInterruptCB = type { ptr, ptr }
%struct.HashContext = type { ptr, ptr, ptr, i32, i32 }
%struct.AVPacket = type { ptr, i64, i64, ptr, i32, i32, i32, ptr, i32, i64, i64, ptr, ptr, %struct.AVRational }
%struct.AVRational = type { i32, i32 }
%struct.AVPacketSideData = type { ptr, i64, i32 }

@.str.17 = private unnamed_addr constant [2 x i8] c"\0A\00", align 1
@.str.31 = private unnamed_addr constant [30 x i8] c"%d, %10ld, %10ld, %8ld, %8d, \00", align 1
@.str.32 = private unnamed_addr constant [7 x i8] c", S=%d\00", align 1
@.str.33 = private unnamed_addr constant [9 x i8] c", %8zu, \00", align 1

; Function Attrs: nounwind uwtable
define internal i32 @framehash_write_packet(ptr noundef %0, ptr noundef %1) #0 {
  %3 = alloca ptr, align 8
  %4 = alloca ptr, align 8
  %5 = alloca ptr, align 8
  %6 = alloca [256 x i8], align 16
  %7 = alloca i32, align 4
  %8 = alloca i32, align 4
  store ptr %0, ptr %3, align 8, !tbaa !4
  store ptr %1, ptr %4, align 8, !tbaa !9
  call void @llvm.lifetime.start.p0(i64 8, ptr %5) #5
  %9 = load ptr, ptr %3, align 8, !tbaa !4
  %10 = getelementptr inbounds nuw %struct.AVFormatContext, ptr %9, i32 0, i32 3
  %11 = load ptr, ptr %10, align 8, !tbaa !11
  store ptr %11, ptr %5, align 8, !tbaa !28
  call void @llvm.lifetime.start.p0(i64 256, ptr %6) #5
  call void @llvm.lifetime.start.p0(i64 4, ptr %7) #5
  %12 = load ptr, ptr %5, align 8, !tbaa !28
  %13 = getelementptr inbounds nuw %struct.HashContext, ptr %12, i32 0, i32 1
  %14 = load ptr, ptr %13, align 8, !tbaa !30
  %15 = getelementptr inbounds ptr, ptr %14, i64 0
  %16 = load ptr, ptr %15, align 8, !tbaa !39
  call void @av_hash_init(ptr noundef %16)
  %17 = load ptr, ptr %5, align 8, !tbaa !28
  %18 = getelementptr inbounds nuw %struct.HashContext, ptr %17, i32 0, i32 1
  %19 = load ptr, ptr %18, align 8, !tbaa !30
  %20 = getelementptr inbounds ptr, ptr %19, i64 0
  %21 = load ptr, ptr %20, align 8, !tbaa !39
  %22 = load ptr, ptr %4, align 8, !tbaa !9
  %23 = getelementptr inbounds nuw %struct.AVPacket, ptr %22, i32 0, i32 3
  %24 = load ptr, ptr %23, align 8, !tbaa !41
  %25 = load ptr, ptr %4, align 8, !tbaa !9
  %26 = getelementptr inbounds nuw %struct.AVPacket, ptr %25, i32 0, i32 4
  %27 = load i32, ptr %26, align 8, !tbaa !42
  %28 = sext i32 %27 to i64
  call void @av_hash_update(ptr noundef %21, ptr noundef %24, i64 noundef %28)
  %29 = getelementptr inbounds [256 x i8], ptr %6, i64 0, i64 0
  %30 = load ptr, ptr %4, align 8, !tbaa !9
  %31 = getelementptr inbounds nuw %struct.AVPacket, ptr %30, i32 0, i32 5
  %32 = load i32, ptr %31, align 4, !tbaa !34
  %33 = load ptr, ptr %4, align 8, !tbaa !9
  %34 = getelementptr inbounds nuw %struct.AVPacket, ptr %33, i32 0, i32 2
  %35 = load i64, ptr %34, align 8, !tbaa !61
  %36 = load ptr, ptr %4, align 8, !tbaa !9
  %37 = getelementptr inbounds nuw %struct.AVPacket, ptr %36, i32 0, i32 1
  %38 = load i64, ptr %37, align 8, !tbaa !62
  %39 = load ptr, ptr %4, align 8, !tbaa !9
  %40 = getelementptr inbounds nuw %struct.AVPacket, ptr %39, i32 0, i32 9
  %41 = load i64, ptr %40, align 8, !tbaa !63
  %42 = load ptr, ptr %4, align 8, !tbaa !9
  %43 = getelementptr inbounds nuw %struct.AVPacket, ptr %42, i32 0, i32 4
  %44 = load i32, ptr %43, align 8, !tbaa !42
  %45 = call i32 (ptr, i64, ptr, ...) @snprintf(ptr noundef %29, i64 noundef 127, ptr noundef @.str.31, i32 noundef %32, i64 noundef %35, i64 noundef %38, i64 noundef %41, i32 noundef %44) #5
  %46 = getelementptr inbounds [256 x i8], ptr %6, i64 0, i64 0
  %47 = call i64 @strlen(ptr noundef %46) #6
  %48 = trunc i64 %47 to i32
  store i32 %48, ptr %7, align 4, !tbaa !44
  %49 = load ptr, ptr %5, align 8, !tbaa !28
  %50 = getelementptr inbounds nuw %struct.HashContext, ptr %49, i32 0, i32 1
  %51 = load ptr, ptr %50, align 8, !tbaa !30
  %52 = getelementptr inbounds ptr, ptr %51, i64 0
  %53 = load ptr, ptr %52, align 8, !tbaa !39
  %54 = getelementptr inbounds [256 x i8], ptr %6, i64 0, i64 0
  %55 = load i32, ptr %7, align 4, !tbaa !44
  %56 = sext i32 %55 to i64
  %57 = getelementptr inbounds i8, ptr %54, i64 %56
  %58 = load i32, ptr %7, align 4, !tbaa !44
  %59 = sext i32 %58 to i64
  %60 = sub i64 256, %59
  %61 = trunc i64 %60 to i32
  call void @av_hash_final_hex(ptr noundef %53, ptr noundef %57, i32 noundef %61)
  %62 = load ptr, ptr %3, align 8, !tbaa !4
  %63 = getelementptr inbounds nuw %struct.AVFormatContext, ptr %62, i32 0, i32 4
  %64 = load ptr, ptr %63, align 8, !tbaa !54
  %65 = getelementptr inbounds [256 x i8], ptr %6, i64 0, i64 0
  %66 = getelementptr inbounds [256 x i8], ptr %6, i64 0, i64 0
  %67 = call i64 @strlen(ptr noundef %66) #6
  %68 = trunc i64 %67 to i32
  call void @avio_write(ptr noundef %64, ptr noundef %65, i32 noundef %68)
  %69 = load ptr, ptr %5, align 8, !tbaa !28
  %70 = getelementptr inbounds nuw %struct.HashContext, ptr %69, i32 0, i32 4
  %71 = load i32, ptr %70, align 4, !tbaa !60
  %72 = icmp sgt i32 %71, 1
  br i1 %72, label %73, label %156

73:                                               ; preds = %2
  %74 = load ptr, ptr %4, align 8, !tbaa !9
  %75 = getelementptr inbounds nuw %struct.AVPacket, ptr %74, i32 0, i32 8
  %76 = load i32, ptr %75, align 8, !tbaa !64
  %77 = icmp ne i32 %76, 0
  br i1 %77, label %78, label %156

78:                                               ; preds = %73
  call void @llvm.lifetime.start.p0(i64 4, ptr %8) #5
  %79 = load ptr, ptr %3, align 8, !tbaa !4
  %80 = getelementptr inbounds nuw %struct.AVFormatContext, ptr %79, i32 0, i32 4
  %81 = load ptr, ptr %80, align 8, !tbaa !54
  %82 = load ptr, ptr %4, align 8, !tbaa !9
  %83 = getelementptr inbounds nuw %struct.AVPacket, ptr %82, i32 0, i32 8
  %84 = load i32, ptr %83, align 8, !tbaa !64
  %85 = call i32 (ptr, ptr, ...) @avio_printf(ptr noundef %81, ptr noundef @.str.32, i32 noundef %84)
  store i32 0, ptr %8, align 4, !tbaa !44
  br label %86

86:                                               ; preds = %152, %78
  %87 = load i32, ptr %8, align 4, !tbaa !44
  %88 = load ptr, ptr %4, align 8, !tbaa !9
  %89 = getelementptr inbounds nuw %struct.AVPacket, ptr %88, i32 0, i32 8
  %90 = load i32, ptr %89, align 8, !tbaa !64
  %91 = icmp slt i32 %87, %90
  br i1 %91, label %92, label %155

92:                                               ; preds = %86
  %93 = load ptr, ptr %5, align 8, !tbaa !28
  %94 = getelementptr inbounds nuw %struct.HashContext, ptr %93, i32 0, i32 1
  %95 = load ptr, ptr %94, align 8, !tbaa !30
  %96 = getelementptr inbounds ptr, ptr %95, i64 0
  %97 = load ptr, ptr %96, align 8, !tbaa !39
  call void @av_hash_init(ptr noundef %97)
  %98 = load ptr, ptr %5, align 8, !tbaa !28
  %99 = getelementptr inbounds nuw %struct.HashContext, ptr %98, i32 0, i32 1
  %100 = load ptr, ptr %99, align 8, !tbaa !30
  %101 = getelementptr inbounds ptr, ptr %100, i64 0
  %102 = load ptr, ptr %101, align 8, !tbaa !39
  %103 = load ptr, ptr %4, align 8, !tbaa !9
  %104 = getelementptr inbounds nuw %struct.AVPacket, ptr %103, i32 0, i32 7
  %105 = load ptr, ptr %104, align 8, !tbaa !65
  %106 = load i32, ptr %8, align 4, !tbaa !44
  %107 = sext i32 %106 to i64
  %108 = getelementptr inbounds %struct.AVPacketSideData, ptr %105, i64 %107
  %109 = getelementptr inbounds nuw %struct.AVPacketSideData, ptr %108, i32 0, i32 0
  %110 = load ptr, ptr %109, align 8, !tbaa !66
  %111 = load ptr, ptr %4, align 8, !tbaa !9
  %112 = getelementptr inbounds nuw %struct.AVPacket, ptr %111, i32 0, i32 7
  %113 = load ptr, ptr %112, align 8, !tbaa !65
  %114 = load i32, ptr %8, align 4, !tbaa !44
  %115 = sext i32 %114 to i64
  %116 = getelementptr inbounds %struct.AVPacketSideData, ptr %113, i64 %115
  %117 = getelementptr inbounds nuw %struct.AVPacketSideData, ptr %116, i32 0, i32 1
  %118 = load i64, ptr %117, align 8, !tbaa !68
  call void @av_hash_update(ptr noundef %102, ptr noundef %110, i64 noundef %118)
  %119 = getelementptr inbounds [256 x i8], ptr %6, i64 0, i64 0
  %120 = load ptr, ptr %4, align 8, !tbaa !9
  %121 = getelementptr inbounds nuw %struct.AVPacket, ptr %120, i32 0, i32 7
  %122 = load ptr, ptr %121, align 8, !tbaa !65
  %123 = load i32, ptr %8, align 4, !tbaa !44
  %124 = sext i32 %123 to i64
  %125 = getelementptr inbounds %struct.AVPacketSideData, ptr %122, i64 %124
  %126 = getelementptr inbounds nuw %struct.AVPacketSideData, ptr %125, i32 0, i32 1
  %127 = load i64, ptr %126, align 8, !tbaa !68
  %128 = call i32 (ptr, i64, ptr, ...) @snprintf(ptr noundef %119, i64 noundef 127, ptr noundef @.str.33, i64 noundef %127) #5
  %129 = getelementptr inbounds [256 x i8], ptr %6, i64 0, i64 0
  %130 = call i64 @strlen(ptr noundef %129) #6
  %131 = trunc i64 %130 to i32
  store i32 %131, ptr %7, align 4, !tbaa !44
  %132 = load ptr, ptr %5, align 8, !tbaa !28
  %133 = getelementptr inbounds nuw %struct.HashContext, ptr %132, i32 0, i32 1
  %134 = load ptr, ptr %133, align 8, !tbaa !30
  %135 = getelementptr inbounds ptr, ptr %134, i64 0
  %136 = load ptr, ptr %135, align 8, !tbaa !39
  %137 = getelementptr inbounds [256 x i8], ptr %6, i64 0, i64 0
  %138 = load i32, ptr %7, align 4, !tbaa !44
  %139 = sext i32 %138 to i64
  %140 = getelementptr inbounds i8, ptr %137, i64 %139
  %141 = load i32, ptr %7, align 4, !tbaa !44
  %142 = sext i32 %141 to i64
  %143 = sub i64 256, %142
  %144 = trunc i64 %143 to i32
  call void @av_hash_final_hex(ptr noundef %136, ptr noundef %140, i32 noundef %144)
  %145 = load ptr, ptr %3, align 8, !tbaa !4
  %146 = getelementptr inbounds nuw %struct.AVFormatContext, ptr %145, i32 0, i32 4
  %147 = load ptr, ptr %146, align 8, !tbaa !54
  %148 = getelementptr inbounds [256 x i8], ptr %6, i64 0, i64 0
  %149 = getelementptr inbounds [256 x i8], ptr %6, i64 0, i64 0
  %150 = call i64 @strlen(ptr noundef %149) #6
  %151 = trunc i64 %150 to i32
  call void @avio_write(ptr noundef %147, ptr noundef %148, i32 noundef %151)
  br label %152

152:                                              ; preds = %92
  %153 = load i32, ptr %8, align 4, !tbaa !44
  %154 = add nsw i32 %153, 1
  store i32 %154, ptr %8, align 4, !tbaa !44
  br label %86, !llvm.loop !69

155:                                              ; preds = %86
  call void @llvm.lifetime.end.p0(i64 4, ptr %8) #5
  br label %156

156:                                              ; preds = %155, %73, %2
  %157 = load ptr, ptr %3, align 8, !tbaa !4
  %158 = getelementptr inbounds nuw %struct.AVFormatContext, ptr %157, i32 0, i32 4
  %159 = load ptr, ptr %158, align 8, !tbaa !54
  %160 = call i32 (ptr, ptr, ...) @avio_printf(ptr noundef %159, ptr noundef @.str.17)
  call void @llvm.lifetime.end.p0(i64 4, ptr %7) #5
  call void @llvm.lifetime.end.p0(i64 256, ptr %6) #5
  call void @llvm.lifetime.end.p0(i64 8, ptr %5) #5
  ret i32 0
}