; Function Attrs: nounwind uwtable
define internal noundef i32 @framehash_write_packet(ptr noundef readonly captures(none) %0, ptr noundef readonly captures(none) %1) #0 {
  %3 = alloca [256 x i8], align 16
  %4 = getelementptr inbounds nuw i8, ptr %0, i64 24
  %5 = load ptr, ptr %4, align 8, !tbaa !4
  call void @llvm.lifetime.start.p0(i64 256, ptr nonnull %3) #6
  %6 = getelementptr inbounds nuw i8, ptr %5, i64 8
  %7 = load ptr, ptr %6, align 8, !tbaa !24
  %8 = load ptr, ptr %7, align 8, !tbaa !33
  tail call void @av_hash_init(ptr noundef %8) #6
  %9 = load ptr, ptr %6, align 8, !tbaa !24
  %10 = load ptr, ptr %9, align 8, !tbaa !33
  %11 = getelementptr inbounds nuw i8, ptr %1, i64 24
  %12 = load ptr, ptr %11, align 8, !tbaa !35
  %13 = getelementptr inbounds nuw i8, ptr %1, i64 32
  %14 = load i32, ptr %13, align 8, !tbaa !36
  %15 = sext i32 %14 to i64
  tail call void @av_hash_update(ptr noundef %10, ptr noundef %12, i64 noundef %15) #6
  %16 = getelementptr inbounds nuw i8, ptr %1, i64 36
  %17 = load i32, ptr %16, align 4, !tbaa !28
  %18 = getelementptr inbounds nuw i8, ptr %1, i64 16
  %19 = load i64, ptr %18, align 8, !tbaa !57
  %20 = getelementptr inbounds nuw i8, ptr %1, i64 8
  %21 = load i64, ptr %20, align 8, !tbaa !58
  %22 = getelementptr inbounds nuw i8, ptr %1, i64 64
  %23 = load i64, ptr %22, align 8, !tbaa !59
  %24 = load i32, ptr %13, align 8, !tbaa !36
  %25 = call i32 (ptr, i64, ptr, ...) @snprintf(ptr noundef nonnull dereferenceable(1) %3, i64 noundef 127, ptr noundef nonnull @.str.31, i32 noundef %17, i64 noundef %19, i64 noundef %21, i64 noundef %23, i32 noundef %24) #6
  %26 = call i64 @strlen(ptr noundef nonnull dereferenceable(1) %3) #7
  %27 = load ptr, ptr %6, align 8, !tbaa !24
  %28 = load ptr, ptr %27, align 8, !tbaa !33
  %sext = shl i64 %26, 32
  %29 = ashr exact i64 %sext, 32
  %30 = getelementptr inbounds i8, ptr %3, i64 %29
  %31 = trunc i64 %26 to i32
  %32 = sub i32 256, %31
  call void @av_hash_final_hex(ptr noundef %28, ptr noundef nonnull %30, i32 noundef %32) #6
  %33 = getelementptr inbounds nuw i8, ptr %0, i64 32
  %34 = load ptr, ptr %33, align 8, !tbaa !47
  %35 = call i64 @strlen(ptr noundef nonnull dereferenceable(1) %3) #7
  %36 = trunc i64 %35 to i32
  call void @avio_write(ptr noundef %34, ptr noundef nonnull %3, i32 noundef %36) #6
  %37 = getelementptr inbounds nuw i8, ptr %5, i64 28
  %38 = load i32, ptr %37, align 4, !tbaa !53
  %39 = icmp sgt i32 %38, 1
  br i1 %39, label %40, label %.loopexit

40:                                               ; preds = %2
  %41 = getelementptr inbounds nuw i8, ptr %1, i64 56
  %42 = load i32, ptr %41, align 8, !tbaa !60
  %.not = icmp eq i32 %42, 0
  br i1 %.not, label %.loopexit, label %43

43:                                               ; preds = %40
  %44 = load ptr, ptr %33, align 8, !tbaa !47
  %45 = call i32 (ptr, ptr, ...) @avio_printf(ptr noundef %44, ptr noundef nonnull @.str.32, i32 noundef %42) #6
  %46 = load i32, ptr %41, align 8, !tbaa !60
  %47 = icmp sgt i32 %46, 0
  br i1 %47, label %.lr.ph, label %.loopexit

.lr.ph:                                           ; preds = %43
  %48 = getelementptr inbounds nuw i8, ptr %1, i64 48
  br label %49

49:                                               ; preds = %.lr.ph, %49
  %indvars.iv = phi i64 [ 0, %.lr.ph ], [ %indvars.iv.next, %49 ]
  %50 = load ptr, ptr %6, align 8, !tbaa !24
  %51 = load ptr, ptr %50, align 8, !tbaa !33
  call void @av_hash_init(ptr noundef %51) #6
  %52 = load ptr, ptr %6, align 8, !tbaa !24
  %53 = load ptr, ptr %52, align 8, !tbaa !33
  %54 = load ptr, ptr %48, align 8, !tbaa !61
  %55 = getelementptr inbounds nuw %struct.AVPacketSideData, ptr %54, i64 %indvars.iv
  %56 = load ptr, ptr %55, align 8, !tbaa !62
  %57 = getelementptr inbounds nuw i8, ptr %55, i64 8
  %58 = load i64, ptr %57, align 8, !tbaa !64
  call void @av_hash_update(ptr noundef %53, ptr noundef %56, i64 noundef %58) #6
  %59 = load ptr, ptr %48, align 8, !tbaa !61
  %60 = getelementptr inbounds nuw %struct.AVPacketSideData, ptr %59, i64 %indvars.iv, i32 1
  %61 = load i64, ptr %60, align 8, !tbaa !64
  %62 = call i32 (ptr, i64, ptr, ...) @snprintf(ptr noundef nonnull dereferenceable(1) %3, i64 noundef 127, ptr noundef nonnull @.str.33, i64 noundef %61) #6
  %63 = call i64 @strlen(ptr noundef nonnull dereferenceable(1) %3) #7
  %64 = load ptr, ptr %6, align 8, !tbaa !24
  %65 = load ptr, ptr %64, align 8, !tbaa !33
  %sext34 = shl i64 %63, 32
  %66 = ashr exact i64 %sext34, 32
  %67 = getelementptr inbounds i8, ptr %3, i64 %66
  %68 = trunc i64 %63 to i32
  %69 = sub i32 256, %68
  call void @av_hash_final_hex(ptr noundef %65, ptr noundef nonnull %67, i32 noundef %69) #6
  %70 = load ptr, ptr %33, align 8, !tbaa !47
  %71 = call i64 @strlen(ptr noundef nonnull dereferenceable(1) %3) #7
  %72 = trunc i64 %71 to i32
  call void @avio_write(ptr noundef %70, ptr noundef nonnull %3, i32 noundef %72) #6
  %indvars.iv.next = add nuw nsw i64 %indvars.iv, 1
  %73 = load i32, ptr %41, align 8, !tbaa !60
  %74 = sext i32 %73 to i64
  %75 = icmp slt i64 %indvars.iv.next, %74
  br i1 %75, label %49, label %.loopexit, !llvm.loop !65

.loopexit:                                        ; preds = %49, %43, %40, %2
  %76 = load ptr, ptr %33, align 8, !tbaa !47
  %77 = call i32 (ptr, ptr, ...) @avio_printf(ptr noundef %76, ptr noundef nonnull @.str.17) #6
  call void @llvm.lifetime.end.p0(i64 256, ptr nonnull %3) #6
  ret i32 0
}